; Function Attrs: mustprogress nofree norecurse nosync nounwind willreturn memory(argmem: write) uwtable
define hidden void @_ZN4cvc58internal5proof18AlfPrintChannelPreC2ERNS0_10LetBindingE(ptr noundef nonnull align 8 dereferenceable(184) %this, ptr noundef nonnull align 8 dereferenceable(472) %lbind) unnamed_addr #6 align 2 {
entry:
  store ptr getelementptr inbounds ({ [9 x ptr] }, ptr @_ZTVN4cvc58internal5proof18AlfPrintChannelPreE, i64 0, i32 0, i64 2), ptr %this, align 8
  %d_lbind = getelementptr inbounds i8, ptr %this, i64 8
  store ptr %lbind, ptr %d_lbind, align 8
  %d_keep = getelementptr inbounds i8, ptr %this, i64 16
  %_M_single_bucket.i.i = getelementptr inbounds i8, ptr %this, i64 64
  store ptr %_M_single_bucket.i.i, ptr %d_keep, align 8
  %_M_bucket_count.i.i = getelementptr inbounds i8, ptr %this, i64 24
  store i64 1, ptr %_M_bucket_count.i.i, align 8
  %_M_before_begin.i.i = getelementptr inbounds i8, ptr %this, i64 32
  %_M_rehash_policy.i.i = getelementptr inbounds i8, ptr %this, i64 48
  tail call void @llvm.memset.p0.i64(ptr noundef nonnull align 8 dereferenceable(16) %_M_before_begin.i.i, i8 0, i64 16, i1 false)
  store float 1.000000e+00, ptr %_M_rehash_policy.i.i, align 8
  %_M_next_resize.i.i.i = getelementptr inbounds i8, ptr %this, i64 56
  tail call void @llvm.memset.p0.i64(ptr noundef nonnull align 8 dereferenceable(16) %_M_next_resize.i.i.i, i8 0, i64 16, i1 false)
  %d_vars = getelementptr inbounds i8, ptr %this, i64 72
  %_M_single_bucket.i.i1 = getelementptr inbounds i8, ptr %this, i64 120
  store ptr %_M_single_bucket.i.i1, ptr %d_vars, align 8
  %_M_bucket_count.i.i2 = getelementptr inbounds i8, ptr %this, i64 80
  store i64 1, ptr %_M_bucket_count.i.i2, align 8
  %_M_before_begin.i.i3 = getelementptr inbounds i8, ptr %this, i64 88
  %_M_rehash_policy.i.i4 = getelementptr inbounds i8, ptr %this, i64 104
  tail call void @llvm.memset.p0.i64(ptr noundef nonnull align 8 dereferenceable(16) %_M_before_begin.i.i3, i8 0, i64 16, i1 false)
  store float 1.000000e+00, ptr %_M_rehash_policy.i.i4, align 8
  %_M_next_resize.i.i.i5 = getelementptr inbounds i8, ptr %this, i64 112
  tail call void @llvm.memset.p0.i64(ptr noundef nonnull align 8 dereferenceable(16) %_M_next_resize.i.i.i5, i8 0, i64 16, i1 false)
  %d_varsVisited = getelementptr inbounds i8, ptr %this, i64 128
  %_M_single_bucket.i.i6 = getelementptr inbounds i8, ptr %this, i64 176
  store ptr %_M_single_bucket.i.i6, ptr %d_varsVisited, align 8
  %_M_bucket_count.i.i7 = getelementptr inbounds i8, ptr %this, i64 136
  store i64 1, ptr %_M_bucket_count.i.i7, align 8
  %_M_before_begin.i.i8 = getelementptr inbounds i8, ptr %this, i64 144
  %_M_rehash_policy.i.i9 = getelementptr inbounds i8, ptr %this, i64 160
  tail call void @llvm.memset.p0.i64(ptr noundef nonnull align 8 dereferenceable(16) %_M_before_begin.i.i8, i8 0, i64 16, i1 false)
  store float 1.000000e+00, ptr %_M_rehash_policy.i.i9, align 8
  %_M_next_resize.i.i.i10 = getelementptr inbounds i8, ptr %this, i64 168
  tail call void @llvm.memset.p0.i64(ptr noundef nonnull align 8 dereferenceable(16) %_M_next_resize.i.i.i10, i8 0, i64 16, i1 false)
  ret void
}